target datalayout = "e-m:e-p270:32:32-p271:32:32-p272:64:64-i64:64-i128:128-f80:128-n8:16:32:64-S128"
target triple = "x86_64-pc-linux-gnu"

%struct.Curl_cfilter = type { ptr, ptr, ptr, ptr, i32, i8 }

@Curl_cfree = external global ptr, align 8

; Function Attrs: nounwind uwtable
define internal void @socks_proxy_cf_free(ptr noundef %0) #0 {
  %2 = alloca ptr, align 8
  %3 = alloca ptr, align 8
  store ptr %0, ptr %2, align 8, !tbaa !4
  call void @llvm.lifetime.start.p0(i64 8, ptr %3) #6
  %4 = load ptr, ptr %2, align 8, !tbaa !4
  %5 = getelementptr inbounds nuw %struct.Curl_cfilter, ptr %4, i32 0, i32 2
  %6 = load ptr, ptr %5, align 8, !tbaa !23
  store ptr %6, ptr %3, align 8, !tbaa !24
  %7 = load ptr, ptr %3, align 8, !tbaa !24
  %8 = icmp ne ptr %7, null
  br i1 %8, label %9, label %14

9:                                                ; preds = %1
  %10 = load ptr, ptr @Curl_cfree, align 8, !tbaa !33
  %11 = load ptr, ptr %3, align 8, !tbaa !24
  call void %10(ptr noundef %11)
  %12 = load ptr, ptr %2, align 8, !tbaa !4
  %13 = getelementptr inbounds nuw %struct.Curl_cfilter, ptr %12, i32 0, i32 2
  store ptr null, ptr %13, align 8, !tbaa !23
  br label %14

14:                                               ; preds = %9, %1
  call void @llvm.lifetime.end.p0(i64 8, ptr %3) #6
  ret void
}

; Function Attrs: nounwind uwtable
define internal void @socks_proxy_cf_destroy(ptr noundef %0, ptr noundef %1) #0 {
  %3 = alloca ptr, align 8
  %4 = alloca ptr, align 8
  store ptr %0, ptr %3, align 8, !tbaa !4
  store ptr %1, ptr %4, align 8, !tbaa !9
  %5 = load ptr, ptr %3, align 8, !tbaa !4
  call void @socks_proxy_cf_free(ptr noundef %5)
  ret void
}