; Function Attrs: nounwind uwtable
define internal void @socks_proxy_cf_destroy(ptr noundef captures(none) %0, ptr readnone captures(none) %1) #0 {
  %3 = getelementptr inbounds nuw i8, ptr %0, i64 16
  %4 = load ptr, ptr %3, align 8, !tbaa !4
  %.not.i = icmp eq ptr %4, null
  br i1 %.not.i, label %socks_proxy_cf_free.exit, label %5

5:                                                ; preds = %2
  %6 = load ptr, ptr @Curl_cfree, align 8, !tbaa !13
  tail call void %6(ptr noundef nonnull %4) #7
  store ptr null, ptr %3, align 8, !tbaa !4
  br label %socks_proxy_cf_free.exit

socks_proxy_cf_free.exit:                         ; preds = %2, %5
  ret void
}